target datalayout = "e-m:e-p270:32:32-p271:32:32-p272:64:64-i64:64-i128:128-f80:128-n8:16:32:64-S128"
target triple = "x86_64-unknown-linux-gnu"

%struct.b2Vec2 = type { float, float }
%struct.b2JointUserData = type { i64 }
%class.b2Body = type { i32, i16, i32, %struct.b2Transform, %struct.b2Sweep, %struct.b2Vec2, float, %struct.b2Vec2, float, ptr, ptr, ptr, ptr, i32, ptr, ptr, float, float, float, float, float, float, float, float, %struct.b2BodyUserData }
%struct.b2Transform = type { %struct.b2Vec2, %struct.b2Rot }
%struct.b2Rot = type { float, float }
%struct.b2Sweep = type { %struct.b2Vec2, %struct.b2Vec2, %struct.b2Vec2, float, float, float }
%struct.b2BodyUserData = type { i64 }
%class.b2PulleyJoint = type { %class.b2Joint, %struct.b2Vec2, %struct.b2Vec2, float, float, %struct.b2Vec2, %struct.b2Vec2, float, float, float, i32, i32, %struct.b2Vec2, %struct.b2Vec2, %struct.b2Vec2, %struct.b2Vec2, %struct.b2Vec2, %struct.b2Vec2, float, float, float, float, float }
%class.b2Joint = type { ptr, i32, ptr, ptr, %struct.b2JointEdge, %struct.b2JointEdge, ptr, ptr, i32, i8, i8, %struct.b2JointUserData }
%struct.b2JointEdge = type { ptr, ptr, ptr, ptr }

@.str = private unnamed_addr constant [24 x i8] c"  b2PulleyJointDef jd;\0A\00", align 1
@.str.1 = private unnamed_addr constant [26 x i8] c"  jd.bodyA = bodies[%d];\0A\00", align 1
@.str.2 = private unnamed_addr constant [26 x i8] c"  jd.bodyB = bodies[%d];\0A\00", align 1
@.str.3 = private unnamed_addr constant [35 x i8] c"  jd.collideConnected = bool(%d);\0A\00", align 1
@.str.4 = private unnamed_addr constant [37 x i8] c"  jd.groundAnchorA.Set(%.9g, %.9g);\0A\00", align 1
@.str.5 = private unnamed_addr constant [37 x i8] c"  jd.groundAnchorB.Set(%.9g, %.9g);\0A\00", align 1
@.str.6 = private unnamed_addr constant [36 x i8] c"  jd.localAnchorA.Set(%.9g, %.9g);\0A\00", align 1
@.str.7 = private unnamed_addr constant [36 x i8] c"  jd.localAnchorB.Set(%.9g, %.9g);\0A\00", align 1
@.str.8 = private unnamed_addr constant [22 x i8] c"  jd.lengthA = %.9g;\0A\00", align 1
@.str.9 = private unnamed_addr constant [22 x i8] c"  jd.lengthB = %.9g;\0A\00", align 1
@.str.10 = private unnamed_addr constant [20 x i8] c"  jd.ratio = %.9g;\0A\00", align 1
@.str.11 = private unnamed_addr constant [43 x i8] c"  joints[%d] = m_world->CreateJoint(&jd);\0A\00", align 1

; Function Attrs: mustprogress uwtable
define void @_ZN13b2PulleyJoint4DumpEv(ptr noundef nonnull align 8 dereferenceable(256) %this) unnamed_addr #3 align 2 {
entry:
  %this.addr = alloca ptr, align 8
  %indexA = alloca i32, align 4
  %indexB = alloca i32, align 4
  store ptr %this, ptr %this.addr, align 8
  %this1 = load ptr, ptr %this.addr, align 8
  %m_bodyA = getelementptr inbounds %class.b2Joint, ptr %this1, i32 0, i32 6
  %0 = load ptr, ptr %m_bodyA, align 8
  %m_islandIndex = getelementptr inbounds %class.b2Body, ptr %0, i32 0, i32 2
  %1 = load i32, ptr %m_islandIndex, align 8
  store i32 %1, ptr %indexA, align 4
  %m_bodyB = getelementptr inbounds %class.b2Joint, ptr %this1, i32 0, i32 7
  %2 = load ptr, ptr %m_bodyB, align 8
  %m_islandIndex2 = getelementptr inbounds %class.b2Body, ptr %2, i32 0, i32 2
  %3 = load i32, ptr %m_islandIndex2, align 8
  store i32 %3, ptr %indexB, align 4
  call void (ptr, ...) @_Z6b2DumpPKcz(ptr noundef @.str)
  %4 = load i32, ptr %indexA, align 4
  call void (ptr, ...) @_Z6b2DumpPKcz(ptr noundef @.str.1, i32 noundef %4)
  %5 = load i32, ptr %indexB, align 4
  call void (ptr, ...) @_Z6b2DumpPKcz(ptr noundef @.str.2, i32 noundef %5)
  %m_collideConnected = getelementptr inbounds %class.b2Joint, ptr %this1, i32 0, i32 10
  %6 = load i8, ptr %m_collideConnected, align 1
  %tobool = trunc i8 %6 to i1
  %conv = zext i1 %tobool to i32
  call void (ptr, ...) @_Z6b2DumpPKcz(ptr noundef @.str.3, i32 noundef %conv)
  %m_groundAnchorA = getelementptr inbounds %class.b2PulleyJoint, ptr %this1, i32 0, i32 1
  %x = getelementptr inbounds %struct.b2Vec2, ptr %m_groundAnchorA, i32 0, i32 0
  %7 = load float, ptr %x, align 8
  %conv3 = fpext float %7 to double
  %m_groundAnchorA4 = getelementptr inbounds %class.b2PulleyJoint, ptr %this1, i32 0, i32 1
  %y = getelementptr inbounds %struct.b2Vec2, ptr %m_groundAnchorA4, i32 0, i32 1
  %8 = load float, ptr %y, align 4
  %conv5 = fpext float %8 to double
  call void (ptr, ...) @_Z6b2DumpPKcz(ptr noundef @.str.4, double noundef %conv3, double noundef %conv5)
  %m_groundAnchorB = getelementptr inbounds %class.b2PulleyJoint, ptr %this1, i32 0, i32 2
  %x6 = getelementptr inbounds %struct.b2Vec2, ptr %m_groundAnchorB, i32 0, i32 0
  %9 = load float, ptr %x6, align 8
  %conv7 = fpext float %9 to double
  %m_groundAnchorB8 = getelementptr inbounds %class.b2PulleyJoint, ptr %this1, i32 0, i32 2
  %y9 = getelementptr inbounds %struct.b2Vec2, ptr %m_groundAnchorB8, i32 0, i32 1
  %10 = load float, ptr %y9, align 4
  %conv10 = fpext float %10 to double
  call void (ptr, ...) @_Z6b2DumpPKcz(ptr noundef @.str.5, double noundef %conv7, double noundef %conv10)
  %m_localAnchorA = getelementptr inbounds %class.b2PulleyJoint, ptr %this1, i32 0, i32 5
  %x11 = getelementptr inbounds %struct.b2Vec2, ptr %m_localAnchorA, i32 0, i32 0
  %11 = load float, ptr %x11, align 8
  %conv12 = fpext float %11 to double
  %m_localAnchorA13 = getelementptr inbounds %class.b2PulleyJoint, ptr %this1, i32 0, i32 5
  %y14 = getelementptr inbounds %struct.b2Vec2, ptr %m_localAnchorA13, i32 0, i32 1
  %12 = load float, ptr %y14, align 4
  %conv15 = fpext float %12 to double
  call void (ptr, ...) @_Z6b2DumpPKcz(ptr noundef @.str.6, double noundef %conv12, double noundef %conv15)
  %m_localAnchorB = getelementptr inbounds %class.b2PulleyJoint, ptr %this1, i32 0, i32 6
  %x16 = getelementptr inbounds %struct.b2Vec2, ptr %m_localAnchorB, i32 0, i32 0
  %13 = load float, ptr %x16, align 8
  %conv17 = fpext float %13 to double
  %m_localAnchorB18 = getelementptr inbounds %class.b2PulleyJoint, ptr %this1, i32 0, i32 6
  %y19 = getelementptr inbounds %struct.b2Vec2, ptr %m_localAnchorB18, i32 0, i32 1
  %14 = load float, ptr %y19, align 4
  %conv20 = fpext float %14 to double
  call void (ptr, ...) @_Z6b2DumpPKcz(ptr noundef @.str.7, double noundef %conv17, double noundef %conv20)
  %m_lengthA = getelementptr inbounds %class.b2PulleyJoint, ptr %this1, i32 0, i32 3
  %15 = load float, ptr %m_lengthA, align 8
  %conv21 = fpext float %15 to double
  call void (ptr, ...) @_Z6b2DumpPKcz(ptr noundef @.str.8, double noundef %conv21)
  %m_lengthB = getelementptr inbounds %class.b2PulleyJoint, ptr %this1, i32 0, i32 4
  %16 = load float, ptr %m_lengthB, align 4
  %conv22 = fpext float %16 to double
  call void (ptr, ...) @_Z6b2DumpPKcz(ptr noundef @.str.9, double noundef %conv22)
  %m_ratio = getelementptr inbounds %class.b2PulleyJoint, ptr %this1, i32 0, i32 8
  %17 = load float, ptr %m_ratio, align 4
  %conv23 = fpext float %17 to double
  call void (ptr, ...) @_Z6b2DumpPKcz(ptr noundef @.str.10, double noundef %conv23)
  %m_index = getelementptr inbounds %class.b2Joint, ptr %this1, i32 0, i32 8
  %18 = load i32, ptr %m_index, align 8
  call void (ptr, ...) @_Z6b2DumpPKcz(ptr noundef @.str.11, i32 noundef %18)
  ret void
}