; Function Attrs: mustprogress uwtable
define void @_ZN13b2PulleyJoint4DumpEv(ptr nocapture noundef nonnull readonly align 8 dereferenceable(256) %this) unnamed_addr #1 align 2 {
entry:
  %m_bodyA = getelementptr inbounds i8, ptr %this, i64 96
  %0 = load ptr, ptr %m_bodyA, align 8
  %m_islandIndex = getelementptr inbounds i8, ptr %0, i64 8
  %1 = load i32, ptr %m_islandIndex, align 8
  %m_bodyB = getelementptr inbounds i8, ptr %this, i64 104
  %2 = load ptr, ptr %m_bodyB, align 8
  %m_islandIndex2 = getelementptr inbounds i8, ptr %2, i64 8
  %3 = load i32, ptr %m_islandIndex2, align 8
  tail call void (ptr, ...) @_Z6b2DumpPKcz(ptr noundef nonnull @.str)
  tail call void (ptr, ...) @_Z6b2DumpPKcz(ptr noundef nonnull @.str.1, i32 noundef %1)
  tail call void (ptr, ...) @_Z6b2DumpPKcz(ptr noundef nonnull @.str.2, i32 noundef %3)
  %m_collideConnected = getelementptr inbounds i8, ptr %this, i64 117
  %4 = load i8, ptr %m_collideConnected, align 1
  %5 = and i8 %4, 1
  %conv = zext nneg i8 %5 to i32
  tail call void (ptr, ...) @_Z6b2DumpPKcz(ptr noundef nonnull @.str.3, i32 noundef %conv)
  %m_groundAnchorA = getelementptr inbounds i8, ptr %this, i64 128
  %6 = load float, ptr %m_groundAnchorA, align 8
  %conv3 = fpext float %6 to double
  %y = getelementptr inbounds i8, ptr %this, i64 132
  %7 = load float, ptr %y, align 4
  %conv5 = fpext float %7 to double
  tail call void (ptr, ...) @_Z6b2DumpPKcz(ptr noundef nonnull @.str.4, double noundef %conv3, double noundef %conv5)
  %m_groundAnchorB = getelementptr inbounds i8, ptr %this, i64 136
  %8 = load float, ptr %m_groundAnchorB, align 8
  %conv7 = fpext float %8 to double
  %y9 = getelementptr inbounds i8, ptr %this, i64 140
  %9 = load float, ptr %y9, align 4
  %conv10 = fpext float %9 to double
  tail call void (ptr, ...) @_Z6b2DumpPKcz(ptr noundef nonnull @.str.5, double noundef %conv7, double noundef %conv10)
  %m_localAnchorA = getelementptr inbounds i8, ptr %this, i64 152
  %10 = load float, ptr %m_localAnchorA, align 8
  %conv12 = fpext float %10 to double
  %y14 = getelementptr inbounds i8, ptr %this, i64 156
  %11 = load float, ptr %y14, align 4
  %conv15 = fpext float %11 to double
  tail call void (ptr, ...) @_Z6b2DumpPKcz(ptr noundef nonnull @.str.6, double noundef %conv12, double noundef %conv15)
  %m_localAnchorB = getelementptr inbounds i8, ptr %this, i64 160
  %12 = load float, ptr %m_localAnchorB, align 8
  %conv17 = fpext float %12 to double
  %y19 = getelementptr inbounds i8, ptr %this, i64 164
  %13 = load float, ptr %y19, align 4
  %conv20 = fpext float %13 to double
  tail call void (ptr, ...) @_Z6b2DumpPKcz(ptr noundef nonnull @.str.7, double noundef %conv17, double noundef %conv20)
  %m_lengthA = getelementptr inbounds i8, ptr %this, i64 144
  %14 = load float, ptr %m_lengthA, align 8
  %conv21 = fpext float %14 to double
  tail call void (ptr, ...) @_Z6b2DumpPKcz(ptr noundef nonnull @.str.8, double noundef %conv21)
  %m_lengthB = getelementptr inbounds i8, ptr %this, i64 148
  %15 = load float, ptr %m_lengthB, align 4
  %conv22 = fpext float %15 to double
  tail call void (ptr, ...) @_Z6b2DumpPKcz(ptr noundef nonnull @.str.9, double noundef %conv22)
  %m_ratio = getelementptr inbounds i8, ptr %this, i64 172
  %16 = load float, ptr %m_ratio, align 4
  %conv23 = fpext float %16 to double
  tail call void (ptr, ...) @_Z6b2DumpPKcz(ptr noundef nonnull @.str.10, double noundef %conv23)
  %m_index = getelementptr inbounds i8, ptr %this, i64 112
  %17 = load i32, ptr %m_index, align 8
  tail call void (ptr, ...) @_Z6b2DumpPKcz(ptr noundef nonnull @.str.11, i32 noundef %17)
  ret void
}